; Function Attrs: mustprogress nofree norecurse nosync nounwind willreturn memory(read, inaccessiblemem: none) uwtable
define internal ptr @spl_dllist_it_get_current_data(ptr noundef readonly captures(none) %0) #10 {
  %2 = getelementptr inbounds nuw i8, ptr %0, i64 88
  %3 = load ptr, ptr %2, align 8, !tbaa !118
  %4 = icmp eq ptr %3, null
  br i1 %4, label %10, label %5

5:                                                ; preds = %1
  %6 = getelementptr inbounds nuw i8, ptr %3, i64 16
  %7 = getelementptr inbounds nuw i8, ptr %3, i64 24
  %8 = load i8, ptr %7, align 8, !tbaa !4
  %9 = icmp eq i8 %8, 0
  %spec.select = select i1 %9, ptr null, ptr %6
  br label %10

10:                                               ; preds = %5, %1
  %.0 = phi ptr [ null, %1 ], [ %spec.select, %5 ]
  ret ptr %.0
}